target datalayout = "e-m:e-p270:32:32-p271:32:32-p272:64:64-i64:64-i128:128-f80:128-n8:16:32:64-S128"
target triple = "x86_64-pc-linux-gnu"

%"class.icu_77::UObject" = type { ptr }
%"class.icu_77::UnicodeString" = type { %"class.icu_77::Replaceable", %"union.icu_77::UnicodeString::StackBufferOrFields" }
%"class.icu_77::Replaceable" = type { %"class.icu_77::UObject" }
%"union.icu_77::UnicodeString::StackBufferOrFields" = type { %struct.anon.0, [32 x i8] }
%struct.anon.0 = type { i16, i32, i32, ptr }
%"class.icu_77::ConstChar16Ptr" = type { ptr }
%"class.icu_77::Char16Ptr" = type { ptr }
%struct.anon = type { i16, [27 x i16] }

@_ZTVN6icu_777UObjectE = available_externally unnamed_addr constant { [5 x ptr] } { [5 x ptr] [ptr null, ptr @_ZTIN6icu_777UObjectE, ptr @_ZN6icu_777UObjectD1Ev, ptr @_ZN6icu_777UObjectD0Ev, ptr @_ZNK6icu_777UObject17getDynamicClassIDEv] }, align 8

; Function Attrs: inlinehint mustprogress nounwind uwtable
define linkonce_odr void @_ZN6icu_777UObjectC2Ev(ptr noundef nonnull align 8 dereferenceable(8) %0) unnamed_addr #5 comdat align 2 {
  %2 = alloca ptr, align 8
  store ptr %0, ptr %2, align 8, !tbaa !48
  %3 = load ptr, ptr %2, align 8
  store ptr getelementptr inbounds inrange(-16, 24) ({ [5 x ptr] }, ptr @_ZTVN6icu_777UObjectE, i32 0, i32 0, i32 2), ptr %3, align 8, !tbaa !11
  ret void
}

; Function Attrs: inlinehint mustprogress nounwind uwtable
define linkonce_odr void @_ZN6icu_7711ReplaceableC2Ev(ptr noundef nonnull align 8 dereferenceable(8) %0) unnamed_addr #5 comdat align 2 {
  %2 = alloca ptr, align 8
  store ptr %0, ptr %2, align 8, !tbaa !46
  %3 = load ptr, ptr %2, align 8
  call void @_ZN6icu_777UObjectC2Ev(ptr noundef nonnull align 8 dereferenceable(8) %3) #7
  store ptr getelementptr inbounds inrange(-16, 88) ({ [13 x ptr] }, ptr @_ZTVN6icu_7711ReplaceableE, i32 0, i32 0, i32 2), ptr %3, align 8, !tbaa !11
  ret void
}

; Function Attrs: inlinehint mustprogress nounwind uwtable
define linkonce_odr void @_ZN6icu_779Char16PtrD2Ev(ptr noundef nonnull align 8 dereferenceable(8) %0) unnamed_addr #5 comdat align 2 {
  %2 = alloca ptr, align 8
  store ptr %0, ptr %2, align 8, !tbaa !26
  %3 = load ptr, ptr %2, align 8
  %4 = getelementptr inbounds nuw %"class.icu_77::Char16Ptr", ptr %3, i32 0, i32 0
  %5 = load ptr, ptr %4, align 8, !tbaa !28
  call void asm sideeffect "", "rm,~{memory},~{dirflag},~{fpsr},~{flags}"(ptr %5) #7, !srcloc !30
  ret void
}

; Function Attrs: inlinehint mustprogress nounwind uwtable
define linkonce_odr void @_ZN6icu_779Char16PtrC2EPDs(ptr noundef nonnull align 8 dereferenceable(8) %0, ptr noundef %1) unnamed_addr #5 comdat align 2 {
  %3 = alloca ptr, align 8
  %4 = alloca ptr, align 8
  store ptr %0, ptr %3, align 8, !tbaa !26
  store ptr %1, ptr %4, align 8, !tbaa !15
  %5 = load ptr, ptr %3, align 8
  %6 = getelementptr inbounds nuw %"class.icu_77::Char16Ptr", ptr %5, i32 0, i32 0
  %7 = load ptr, ptr %4, align 8, !tbaa !15
  store ptr %7, ptr %6, align 8, !tbaa !28
  ret void
}

; Function Attrs: inlinehint mustprogress uwtable
define linkonce_odr void @_ZN6icu_7713UnicodeStringC2Ev(ptr noundef nonnull align 8 dereferenceable(64) %0) unnamed_addr #6 comdat align 2 {
  %2 = alloca ptr, align 8
  store ptr %0, ptr %2, align 8, !tbaa !36
  %3 = load ptr, ptr %2, align 8
  call void @_ZN6icu_7711ReplaceableC2Ev(ptr noundef nonnull align 8 dereferenceable(8) %3)
  store ptr getelementptr inbounds inrange(-16, 88) ({ [13 x ptr] }, ptr @_ZTVN6icu_7713UnicodeStringE, i32 0, i32 0, i32 2), ptr %3, align 8, !tbaa !11
  %4 = getelementptr inbounds nuw %"class.icu_77::UnicodeString", ptr %3, i32 0, i32 1
  %5 = getelementptr inbounds nuw %struct.anon, ptr %4, i32 0, i32 0
  store i16 2, ptr %5, align 8, !tbaa !31
  ret void
}

; Function Attrs: inlinehint mustprogress nounwind uwtable
define linkonce_odr void @_ZN6icu_7714ConstChar16PtrD2Ev(ptr noundef nonnull align 8 dereferenceable(8) %0) unnamed_addr #5 comdat align 2 {
  %2 = alloca ptr, align 8
  store ptr %0, ptr %2, align 8, !tbaa !21
  %3 = load ptr, ptr %2, align 8
  %4 = getelementptr inbounds nuw %"class.icu_77::ConstChar16Ptr", ptr %3, i32 0, i32 0
  %5 = load ptr, ptr %4, align 8, !tbaa !23
  call void asm sideeffect "", "rm,~{memory},~{dirflag},~{fpsr},~{flags}"(ptr %5) #7, !srcloc !25
  ret void
}

; Function Attrs: inlinehint mustprogress nounwind uwtable
define linkonce_odr void @_ZN6icu_7714ConstChar16PtrC2EPKDs(ptr noundef nonnull align 8 dereferenceable(8) %0, ptr noundef %1) unnamed_addr #5 comdat align 2 {
  %3 = alloca ptr, align 8
  %4 = alloca ptr, align 8
  store ptr %0, ptr %3, align 8, !tbaa !21
  store ptr %1, ptr %4, align 8, !tbaa !15
  %5 = load ptr, ptr %3, align 8
  %6 = getelementptr inbounds nuw %"class.icu_77::ConstChar16Ptr", ptr %5, i32 0, i32 0
  %7 = load ptr, ptr %4, align 8, !tbaa !15
  store ptr %7, ptr %6, align 8, !tbaa !23
  ret void
}

; Function Attrs: inlinehint mustprogress nounwind uwtable
define internal noundef signext i8 @_ZL9U_FAILURE10UErrorCode(i32 noundef %0) #5 {
  %2 = alloca i32, align 4
  store i32 %0, ptr %2, align 4, !tbaa !13
  %3 = load i32, ptr %2, align 4, !tbaa !13
  %4 = icmp sgt i32 %3, 0
  %5 = zext i1 %4 to i8
  ret i8 %5
}

; Function Attrs: mustprogress uwtable
define i32 @udatpg_addPattern_77(ptr noundef %0, ptr noundef %1, i32 noundef %2, i8 noundef signext %3, ptr noundef %4, i32 noundef %5, ptr noundef %6, ptr noundef %7) #0 personality ptr @__gxx_personality_v0 {
  %9 = alloca i32, align 4
  %10 = alloca ptr, align 8
  %11 = alloca ptr, align 8
  %12 = alloca i32, align 4
  %13 = alloca i8, align 1
  %14 = alloca ptr, align 8
  %15 = alloca i32, align 4
  %16 = alloca ptr, align 8
  %17 = alloca ptr, align 8
  %18 = alloca %"class.icu_77::UnicodeString", align 8
  %19 = alloca %"class.icu_77::ConstChar16Ptr", align 8
  %20 = alloca ptr, align 8
  %21 = alloca i32, align 4
  %22 = alloca %"class.icu_77::UnicodeString", align 8
  %23 = alloca i32, align 4
  %24 = alloca i32, align 4
  %25 = alloca %"class.icu_77::Char16Ptr", align 8
  store ptr %0, ptr %10, align 8, !tbaa !9
  store ptr %1, ptr %11, align 8, !tbaa !15
  store i32 %2, ptr %12, align 4, !tbaa !17
  store i8 %3, ptr %13, align 1, !tbaa !31
  store ptr %4, ptr %14, align 8, !tbaa !15
  store i32 %5, ptr %15, align 4, !tbaa !17
  store ptr %6, ptr %16, align 8, !tbaa !32
  store ptr %7, ptr %17, align 8, !tbaa !8
  %26 = load ptr, ptr %17, align 8, !tbaa !8
  %27 = load i32, ptr %26, align 4, !tbaa !13
  %28 = call noundef signext i8 @_ZL9U_FAILURE10UErrorCode(i32 noundef %27)
  %29 = icmp ne i8 %28, 0
  br i1 %29, label %30, label %31

30:                                               ; preds = %8
  store i32 0, ptr %9, align 4
  br label %89

31:                                               ; preds = %8
  %32 = load ptr, ptr %11, align 8, !tbaa !15
  %33 = icmp eq ptr %32, null
  br i1 %33, label %34, label %39

34:                                               ; preds = %31
  %35 = load i32, ptr %12, align 4, !tbaa !17
  %36 = icmp ne i32 %35, 0
  br i1 %36, label %37, label %39

37:                                               ; preds = %34
  %38 = load ptr, ptr %17, align 8, !tbaa !8
  store i32 1, ptr %38, align 4, !tbaa !13
  store i32 0, ptr %9, align 4
  br label %89

39:                                               ; preds = %34, %31
  call void @llvm.lifetime.start.p0(i64 64, ptr %18) #7
  %40 = load i32, ptr %12, align 4, !tbaa !17
  %41 = icmp slt i32 %40, 0
  %42 = zext i1 %41 to i8
  %43 = load ptr, ptr %11, align 8, !tbaa !15
  call void @_ZN6icu_7714ConstChar16PtrC2EPKDs(ptr noundef nonnull align 8 dereferenceable(8) %19, ptr noundef %43)
  %44 = load i32, ptr %12, align 4, !tbaa !17
  invoke void @_ZN6icu_7713UnicodeStringC1EaNS_14ConstChar16PtrEi(ptr noundef nonnull align 8 dereferenceable(64) %18, i8 noundef signext %42, ptr noundef %19, i32 noundef %44)
          to label %45 unwind label %63

45:                                               ; preds = %39
  call void @_ZN6icu_7714ConstChar16PtrD2Ev(ptr noundef nonnull align 8 dereferenceable(8) %19) #7
  call void @llvm.lifetime.start.p0(i64 64, ptr %22) #7
  invoke void @_ZN6icu_7713UnicodeStringC2Ev(ptr noundef nonnull align 8 dereferenceable(64) %22)
          to label %46 unwind label %67

46:                                               ; preds = %45
  call void @llvm.lifetime.start.p0(i64 4, ptr %23) #7
  %47 = load ptr, ptr %10, align 8, !tbaa !9
  %48 = load i8, ptr %13, align 1, !tbaa !31
  %49 = load ptr, ptr %17, align 8, !tbaa !8
  %50 = invoke noundef i32 @_ZN6icu_7724DateTimePatternGenerator10addPatternERKNS_13UnicodeStringEaRS1_R10UErrorCode(ptr noundef nonnull align 8 dereferenceable(4796) %47, ptr noundef nonnull align 8 dereferenceable(64) %18, i8 noundef signext %48, ptr noundef nonnull align 8 dereferenceable(64) %22, ptr noundef nonnull align 4 dereferenceable(4) %49)
          to label %51 unwind label %71

51:                                               ; preds = %46
  store i32 %50, ptr %23, align 4, !tbaa !34
  call void @llvm.lifetime.start.p0(i64 4, ptr %24) #7
  %52 = load ptr, ptr %14, align 8, !tbaa !15
  invoke void @_ZN6icu_779Char16PtrC2EPDs(ptr noundef nonnull align 8 dereferenceable(8) %25, ptr noundef %52)
          to label %53 unwind label %75

53:                                               ; preds = %51
  %54 = load i32, ptr %15, align 4, !tbaa !17
  %55 = load ptr, ptr %17, align 8, !tbaa !8
  %56 = invoke noundef i32 @_ZNK6icu_7713UnicodeString7extractENS_9Char16PtrEiR10UErrorCode(ptr noundef nonnull align 8 dereferenceable(64) %22, ptr noundef %25, i32 noundef %54, ptr noundef nonnull align 4 dereferenceable(4) %55)
          to label %57 unwind label %79

57:                                               ; preds = %53
  call void @_ZN6icu_779Char16PtrD2Ev(ptr noundef nonnull align 8 dereferenceable(8) %25) #7
  store i32 %56, ptr %24, align 4, !tbaa !17
  %58 = load ptr, ptr %16, align 8, !tbaa !32
  %59 = icmp ne ptr %58, null
  br i1 %59, label %60, label %83

60:                                               ; preds = %57
  %61 = load i32, ptr %24, align 4, !tbaa !17
  %62 = load ptr, ptr %16, align 8, !tbaa !32
  store i32 %61, ptr %62, align 4, !tbaa !17
  br label %83

63:                                               ; preds = %39
  %64 = landingpad { ptr, i32 }
          cleanup
  %65 = extractvalue { ptr, i32 } %64, 0
  store ptr %65, ptr %20, align 8
  %66 = extractvalue { ptr, i32 } %64, 1
  store i32 %66, ptr %21, align 4
  call void @_ZN6icu_7714ConstChar16PtrD2Ev(ptr noundef nonnull align 8 dereferenceable(8) %19) #7
  br label %88

67:                                               ; preds = %45
  %68 = landingpad { ptr, i32 }
          cleanup
  %69 = extractvalue { ptr, i32 } %68, 0
  store ptr %69, ptr %20, align 8
  %70 = extractvalue { ptr, i32 } %68, 1
  store i32 %70, ptr %21, align 4
  br label %87

71:                                               ; preds = %46
  %72 = landingpad { ptr, i32 }
          cleanup
  %73 = extractvalue { ptr, i32 } %72, 0
  store ptr %73, ptr %20, align 8
  %74 = extractvalue { ptr, i32 } %72, 1
  store i32 %74, ptr %21, align 4
  br label %86

75:                                               ; preds = %51
  %76 = landingpad { ptr, i32 }
          cleanup
  %77 = extractvalue { ptr, i32 } %76, 0
  store ptr %77, ptr %20, align 8
  %78 = extractvalue { ptr, i32 } %76, 1
  store i32 %78, ptr %21, align 4
  br label %85

79:                                               ; preds = %53
  %80 = landingpad { ptr, i32 }
          cleanup
  %81 = extractvalue { ptr, i32 } %80, 0
  store ptr %81, ptr %20, align 8
  %82 = extractvalue { ptr, i32 } %80, 1
  store i32 %82, ptr %21, align 4
  call void @_ZN6icu_779Char16PtrD2Ev(ptr noundef nonnull align 8 dereferenceable(8) %25) #7
  br label %85

83:                                               ; preds = %60, %57
  %84 = load i32, ptr %23, align 4, !tbaa !34
  store i32 %84, ptr %9, align 4
  call void @llvm.lifetime.end.p0(i64 4, ptr %24) #7
  call void @llvm.lifetime.end.p0(i64 4, ptr %23) #7
  call void @_ZN6icu_7713UnicodeStringD1Ev(ptr noundef nonnull align 8 dereferenceable(64) %22) #7
  call void @llvm.lifetime.end.p0(i64 64, ptr %22) #7
  call void @_ZN6icu_7713UnicodeStringD1Ev(ptr noundef nonnull align 8 dereferenceable(64) %18) #7
  call void @llvm.lifetime.end.p0(i64 64, ptr %18) #7
  br label %89

85:                                               ; preds = %79, %75
  call void @llvm.lifetime.end.p0(i64 4, ptr %24) #7
  br label %86

86:                                               ; preds = %85, %71
  call void @llvm.lifetime.end.p0(i64 4, ptr %23) #7
  call void @_ZN6icu_7713UnicodeStringD1Ev(ptr noundef nonnull align 8 dereferenceable(64) %22) #7
  br label %87

87:                                               ; preds = %86, %67
  call void @llvm.lifetime.end.p0(i64 64, ptr %22) #7
  call void @_ZN6icu_7713UnicodeStringD1Ev(ptr noundef nonnull align 8 dereferenceable(64) %18) #7
  br label %88

88:                                               ; preds = %87, %63
  call void @llvm.lifetime.end.p0(i64 64, ptr %18) #7
  br label %91

89:                                               ; preds = %83, %37, %30
  %90 = load i32, ptr %9, align 4
  ret i32 %90

91:                                               ; preds = %88
  %92 = load ptr, ptr %20, align 8
  %93 = load i32, ptr %21, align 4
  %94 = insertvalue { ptr, i32 } poison, ptr %92, 0
  %95 = insertvalue { ptr, i32 } %94, i32 %93, 1
  resume { ptr, i32 } %95
}