; Function Attrs: mustprogress uwtable
define noundef i32 @udatpg_addPattern_77(ptr noundef %0, ptr noundef %1, i32 noundef %2, i8 noundef signext %3, ptr noundef %4, i32 noundef %5, ptr noundef writeonly %6, ptr noundef %7) local_unnamed_addr #0 personality ptr @__gxx_personality_v0 {
  %9 = alloca %"class.icu_77::UnicodeString", align 8
  %10 = alloca %"class.icu_77::ConstChar16Ptr", align 8
  %11 = alloca %"class.icu_77::UnicodeString", align 8
  %12 = alloca %"class.icu_77::Char16Ptr", align 8
  %13 = load i32, ptr %7, align 4, !tbaa !6
  %14 = icmp slt i32 %13, 1
  br i1 %14, label %15, label %41

15:                                               ; preds = %8
  %16 = icmp eq ptr %1, null
  %17 = icmp ne i32 %2, 0
  %or.cond = and i1 %16, %17
  br i1 %or.cond, label %18, label %19

18:                                               ; preds = %15
  store i32 1, ptr %7, align 4, !tbaa !6
  br label %41

19:                                               ; preds = %15
  call void @llvm.lifetime.start.p0(i64 64, ptr nonnull %9) #5
  %.lobit = lshr i32 %2, 31
  %20 = trunc nuw nsw i32 %.lobit to i8
  store ptr %1, ptr %10, align 8, !tbaa !9
  invoke void @_ZN6icu_7713UnicodeStringC1EaNS_14ConstChar16PtrEi(ptr noundef nonnull align 8 dereferenceable(64) %9, i8 noundef signext %20, ptr noundef nonnull %10, i32 noundef %2)
          to label %21 unwind label %30

21:                                               ; preds = %19
  %22 = load ptr, ptr %10, align 8, !tbaa !9
  call void asm sideeffect "", "rm,~{memory},~{dirflag},~{fpsr},~{flags}"(ptr %22) #5, !srcloc !13
  call void @llvm.lifetime.start.p0(i64 64, ptr nonnull %11) #5
  store ptr getelementptr inbounds nuw inrange(-16, 88) (i8, ptr @_ZTVN6icu_7713UnicodeStringE, i64 16), ptr %11, align 8, !tbaa !3
  %23 = getelementptr inbounds nuw i8, ptr %11, i64 8
  store i16 2, ptr %23, align 8, !tbaa !17
  %24 = invoke noundef i32 @_ZN6icu_7724DateTimePatternGenerator10addPatternERKNS_13UnicodeStringEaRS1_R10UErrorCode(ptr noundef nonnull align 8 dereferenceable(4796) %0, ptr noundef nonnull align 8 dereferenceable(64) %9, i8 noundef signext %3, ptr noundef nonnull align 8 dereferenceable(64) %11, ptr noundef nonnull align 4 dereferenceable(4) %7)
          to label %25 unwind label %33

25:                                               ; preds = %21
  store ptr %4, ptr %12, align 8, !tbaa !14
  %26 = invoke noundef i32 @_ZNK6icu_7713UnicodeString7extractENS_9Char16PtrEiR10UErrorCode(ptr noundef nonnull align 8 dereferenceable(64) %11, ptr noundef nonnull %12, i32 noundef %5, ptr noundef nonnull align 4 dereferenceable(4) %7)
          to label %27 unwind label %35

27:                                               ; preds = %25
  %28 = load ptr, ptr %12, align 8, !tbaa !14
  call void asm sideeffect "", "rm,~{memory},~{dirflag},~{fpsr},~{flags}"(ptr %28) #5, !srcloc !16
  %.not28 = icmp eq ptr %6, null
  br i1 %.not28, label %38, label %29

29:                                               ; preds = %27
  store i32 %26, ptr %6, align 4, !tbaa !18
  br label %38

30:                                               ; preds = %19
  %31 = landingpad { ptr, i32 }
          cleanup
  %32 = load ptr, ptr %10, align 8, !tbaa !9
  call void asm sideeffect "", "rm,~{memory},~{dirflag},~{fpsr},~{flags}"(ptr %32) #5, !srcloc !13
  br label %40

33:                                               ; preds = %21
  %34 = landingpad { ptr, i32 }
          cleanup
  br label %39

35:                                               ; preds = %25
  %36 = landingpad { ptr, i32 }
          cleanup
  %37 = load ptr, ptr %12, align 8, !tbaa !14
  call void asm sideeffect "", "rm,~{memory},~{dirflag},~{fpsr},~{flags}"(ptr %37) #5, !srcloc !16
  br label %39

38:                                               ; preds = %29, %27
  call void @_ZN6icu_7713UnicodeStringD1Ev(ptr noundef nonnull align 8 dereferenceable(64) %11) #5
  call void @llvm.lifetime.end.p0(i64 64, ptr nonnull %11) #5
  call void @_ZN6icu_7713UnicodeStringD1Ev(ptr noundef nonnull align 8 dereferenceable(64) %9) #5
  call void @llvm.lifetime.end.p0(i64 64, ptr nonnull %9) #5
  br label %41

39:                                               ; preds = %35, %33
  %.pn = phi { ptr, i32 } [ %36, %35 ], [ %34, %33 ]
  call void @_ZN6icu_7713UnicodeStringD1Ev(ptr noundef nonnull align 8 dereferenceable(64) %11) #5
  call void @llvm.lifetime.end.p0(i64 64, ptr nonnull %11) #5
  call void @_ZN6icu_7713UnicodeStringD1Ev(ptr noundef nonnull align 8 dereferenceable(64) %9) #5
  br label %40

40:                                               ; preds = %39, %30
  %.pn.pn.pn = phi { ptr, i32 } [ %.pn, %39 ], [ %31, %30 ]
  call void @llvm.lifetime.end.p0(i64 64, ptr nonnull %9) #5
  resume { ptr, i32 } %.pn.pn.pn

41:                                               ; preds = %8, %38, %18
  %.0 = phi i32 [ 0, %18 ], [ %24, %38 ], [ 0, %8 ]
  ret i32 %.0
}